; Function Attrs: mustprogress ssp uwtable
define hidden noundef zeroext i1 @_ZN6open3d13visualization4glsl25PointCloudPickingRenderer11AddGeometryESt10shared_ptrIKNS_8geometry8GeometryEE(ptr noundef nonnull align 8 dereferenceable(128) %0, ptr noundef readonly captures(none) %1) unnamed_addr #1 align 2 personality ptr @__gxx_personality_v0 {
  %3 = load ptr, ptr %1, align 8, !tbaa !33
  %4 = getelementptr inbounds nuw i8, ptr %3, i64 8
  %5 = load i32, ptr %4, align 8, !tbaa !53
  %.not = icmp eq i32 %5, 1
  br i1 %.not, label %6, label %47

6:                                                ; preds = %2
  %7 = getelementptr inbounds nuw i8, ptr %0, i64 8
  store ptr %3, ptr %7, align 8, !tbaa !33
  %8 = getelementptr inbounds nuw i8, ptr %0, i64 16
  %9 = getelementptr inbounds nuw i8, ptr %1, i64 8
  %10 = load ptr, ptr %9, align 8, !tbaa !16
  %11 = load ptr, ptr %8, align 8, !tbaa !16
  %.not.i.i.i = icmp eq ptr %10, %11
  br i1 %.not.i.i.i, label %_ZNSt10shared_ptrIKN6open3d8geometry8GeometryEEaSERKS4_.exit, label %12

12:                                               ; preds = %6
  %.not7.i.i.i = icmp eq ptr %10, null
  br i1 %.not7.i.i.i, label %_ZNSt16_Sp_counted_baseILN9__gnu_cxx12_Lock_policyE2EE15_M_add_ref_copyEv.exit.i.i.i, label %13

13:                                               ; preds = %12
  %14 = getelementptr inbounds nuw i8, ptr %10, i64 8
  %15 = load i8, ptr @__libc_single_threaded, align 1, !tbaa !15
  %.not.i.i.i.i = icmp eq i8 %15, 0
  br i1 %.not.i.i.i.i, label %19, label %16

16:                                               ; preds = %13
  %17 = load i32, ptr %14, align 4, !tbaa !23
  %18 = add nsw i32 %17, 1
  store i32 %18, ptr %14, align 4, !tbaa !23
  br label %_ZNSt16_Sp_counted_baseILN9__gnu_cxx12_Lock_policyE2EE15_M_add_ref_copyEv.exit.i.i.i

19:                                               ; preds = %13
  %20 = atomicrmw volatile add ptr %14, i32 1 acq_rel, align 4
  %.pr.pre.i.i.i = load ptr, ptr %8, align 8, !tbaa !16
  br label %_ZNSt16_Sp_counted_baseILN9__gnu_cxx12_Lock_policyE2EE15_M_add_ref_copyEv.exit.i.i.i

_ZNSt16_Sp_counted_baseILN9__gnu_cxx12_Lock_policyE2EE15_M_add_ref_copyEv.exit.i.i.i: ; preds = %19, %16, %12
  %21 = phi ptr [ %11, %12 ], [ %11, %16 ], [ %.pr.pre.i.i.i, %19 ]
  %.not8.i.i.i = icmp eq ptr %21, null
  br i1 %.not8.i.i.i, label %_ZNSt16_Sp_counted_baseILN9__gnu_cxx12_Lock_policyE2EE10_M_releaseEv.exit.i.i.i, label %22

22:                                               ; preds = %_ZNSt16_Sp_counted_baseILN9__gnu_cxx12_Lock_policyE2EE15_M_add_ref_copyEv.exit.i.i.i
  %23 = getelementptr inbounds nuw i8, ptr %21, i64 8
  %24 = load atomic i64, ptr %23 acquire, align 8
  %25 = icmp eq i64 %24, 4294967297
  %26 = trunc i64 %24 to i32
  br i1 %25, label %27, label %35

27:                                               ; preds = %22
  store i32 0, ptr %23, align 8, !tbaa !19
  %28 = getelementptr inbounds nuw i8, ptr %21, i64 12
  store i32 0, ptr %28, align 4, !tbaa !22
  %29 = load ptr, ptr %21, align 8, !tbaa !4
  %30 = getelementptr inbounds nuw i8, ptr %29, i64 16
  %31 = load ptr, ptr %30, align 8
  tail call void %31(ptr noundef nonnull align 8 dereferenceable(16) %21) #23
  %32 = load ptr, ptr %21, align 8, !tbaa !4
  %33 = getelementptr inbounds nuw i8, ptr %32, i64 24
  %34 = load ptr, ptr %33, align 8
  tail call void %34(ptr noundef nonnull align 8 dereferenceable(16) %21) #23
  br label %_ZNSt16_Sp_counted_baseILN9__gnu_cxx12_Lock_policyE2EE10_M_releaseEv.exit.i.i.i

35:                                               ; preds = %22
  %36 = load i8, ptr @__libc_single_threaded, align 1, !tbaa !15
  %.not.i9.i.i.i = icmp eq i8 %36, 0
  br i1 %.not.i9.i.i.i, label %39, label %37

37:                                               ; preds = %35
  %38 = add nsw i32 %26, -1
  store i32 %38, ptr %23, align 4, !tbaa !23
  br label %_ZN9__gnu_cxx27__exchange_and_add_dispatchEPii.exit.i.i.i.i

39:                                               ; preds = %35
  %40 = atomicrmw volatile add ptr %23, i32 -1 acq_rel, align 4
  br label %_ZN9__gnu_cxx27__exchange_and_add_dispatchEPii.exit.i.i.i.i

_ZN9__gnu_cxx27__exchange_and_add_dispatchEPii.exit.i.i.i.i: ; preds = %39, %37
  %.0.i.i.i.i.i = phi i32 [ %26, %37 ], [ %40, %39 ]
  %41 = icmp eq i32 %.0.i.i.i.i.i, 1
  br i1 %41, label %42, label %_ZNSt16_Sp_counted_baseILN9__gnu_cxx12_Lock_policyE2EE10_M_releaseEv.exit.i.i.i, !prof !24

42:                                               ; preds = %_ZN9__gnu_cxx27__exchange_and_add_dispatchEPii.exit.i.i.i.i
  tail call void @_ZNSt16_Sp_counted_baseILN9__gnu_cxx12_Lock_policyE2EE24_M_release_last_use_coldEv(ptr noundef nonnull align 8 dereferenceable(16) %21) #23
  br label %_ZNSt16_Sp_counted_baseILN9__gnu_cxx12_Lock_policyE2EE10_M_releaseEv.exit.i.i.i

_ZNSt16_Sp_counted_baseILN9__gnu_cxx12_Lock_policyE2EE10_M_releaseEv.exit.i.i.i: ; preds = %42, %_ZN9__gnu_cxx27__exchange_and_add_dispatchEPii.exit.i.i.i.i, %27, %_ZNSt16_Sp_counted_baseILN9__gnu_cxx12_Lock_policyE2EE15_M_add_ref_copyEv.exit.i.i.i
  store ptr %10, ptr %8, align 8, !tbaa !16
  br label %_ZNSt10shared_ptrIKN6open3d8geometry8GeometryEEaSERKS4_.exit

_ZNSt10shared_ptrIKN6open3d8geometry8GeometryEEaSERKS4_.exit: ; preds = %6, %_ZNSt16_Sp_counted_baseILN9__gnu_cxx12_Lock_policyE2EE10_M_releaseEv.exit.i.i.i
  %43 = load ptr, ptr %0, align 8, !tbaa !4
  %44 = getelementptr inbounds nuw i8, ptr %43, i64 32
  %45 = load ptr, ptr %44, align 8
  %46 = tail call noundef zeroext i1 %45(ptr noundef nonnull align 8 dereferenceable(128) %0)
  br label %47

47:                                               ; preds = %2, %_ZNSt10shared_ptrIKN6open3d8geometry8GeometryEEaSERKS4_.exit
  %.0 = phi i1 [ %46, %_ZNSt10shared_ptrIKN6open3d8geometry8GeometryEEaSERKS4_.exit ], [ false, %2 ]
  ret i1 %.0
}